; ModuleID = 'source-C-CXX/52/598.c'
source_filename = "source-C-CXX/52/598.c"
target datalayout = "e-m:e-p270:32:32-p271:32:32-p272:64:64-i64:64-f80:128-n8:16:32:64-S128"
target triple = "x86_64-pc-linux-gnu"

@.str = private unnamed_addr constant [6 x i8] c"%d %d\00", align 1
@.str.1 = private unnamed_addr constant [3 x i8] c"%d\00", align 1
@.str.2 = private unnamed_addr constant [4 x i8] c",%d\00", align 1

; Function Attrs: nofree nounwind sspstrong uwtable
define dso_local i32 @main() local_unnamed_addr #0 {
  %1 = alloca [301 x i32], align 16
  %2 = alloca i32, align 4
  %3 = alloca i32, align 4
  %4 = bitcast [301 x i32]* %1 to i8*
  call void @llvm.lifetime.start.p0i8(i64 1204, i8* nonnull %4) #3
  %5 = bitcast i32* %2 to i8*
  call void @llvm.lifetime.start.p0i8(i64 4, i8* nonnull %5) #3
  %6 = bitcast i32* %3 to i8*
  call void @llvm.lifetime.start.p0i8(i64 4, i8* nonnull %6) #3
  %7 = call i32 (i8*, ...) @__isoc99_scanf(i8* getelementptr inbounds ([6 x i8], [6 x i8]* @.str, i64 0, i64 0), i32* nonnull %2, i32* nonnull %3)
  %8 = load i32, i32* %3, align 4, !tbaa !5
  %9 = call i32 (i8*, ...) @printf(i8* nonnull dereferenceable(1) getelementptr inbounds ([3 x i8], [3 x i8]* @.str.1, i64 0, i64 0), i32 %8)
  %10 = load i32, i32* %3, align 4, !tbaa !5
  %11 = getelementptr inbounds [301 x i32], [301 x i32]* %1, i64 0, i64 0
  store i32 %10, i32* %11, align 16, !tbaa !5
  %12 = load i32, i32* %2, align 4, !tbaa !5
  %13 = icmp sgt i32 %12, 1
  br i1 %13, label %14, label %46

14:                                               ; preds = %0, %41
  %15 = phi i32 [ %42, %41 ], [ 1, %0 ]
  %16 = phi i32 [ %43, %41 ], [ 1, %0 ]
  %17 = call i32 (i8*, ...) @__isoc99_scanf(i8* getelementptr inbounds ([3 x i8], [3 x i8]* @.str.1, i64 0, i64 0), i32* nonnull %3)
  %18 = load i32, i32* %3, align 4
  %19 = icmp sgt i32 %15, 0
  br i1 %19, label %20, label %32

20:                                               ; preds = %14
  %21 = zext i32 %15 to i64
  br label %22

22:                                               ; preds = %20, %27
  %23 = phi i64 [ 0, %20 ], [ %28, %27 ]
  %24 = getelementptr inbounds [301 x i32], [301 x i32]* %1, i64 0, i64 %23
  %25 = load i32, i32* %24, align 4, !tbaa !5
  %26 = icmp eq i32 %25, %18
  br i1 %26, label %30, label %27

27:                                               ; preds = %22
  %28 = add nuw nsw i64 %23, 1
  %29 = icmp eq i64 %28, %21
  br i1 %29, label %35, label %22, !llvm.loop !9

30:                                               ; preds = %22
  %31 = trunc i64 %23 to i32
  br label %32

32:                                               ; preds = %30, %14
  %33 = phi i32 [ 0, %14 ], [ %31, %30 ]
  %34 = icmp eq i32 %33, %15
  br i1 %34, label %35, label %41

35:                                               ; preds = %27, %32
  %36 = call i32 (i8*, ...) @printf(i8* nonnull dereferenceable(1) getelementptr inbounds ([4 x i8], [4 x i8]* @.str.2, i64 0, i64 0), i32 %18)
  %37 = load i32, i32* %3, align 4, !tbaa !5
  %38 = sext i32 %15 to i64
  %39 = getelementptr inbounds [301 x i32], [301 x i32]* %1, i64 0, i64 %38
  store i32 %37, i32* %39, align 4, !tbaa !5
  %40 = add nsw i32 %15, 1
  br label %41

41:                                               ; preds = %32, %35
  %42 = phi i32 [ %40, %35 ], [ %15, %32 ]
  %43 = add nuw nsw i32 %16, 1
  %44 = load i32, i32* %2, align 4, !tbaa !5
  %45 = icmp slt i32 %43, %44
  br i1 %45, label %14, label %46, !llvm.loop !11

46:                                               ; preds = %41, %0
  call void @llvm.lifetime.end.p0i8(i64 4, i8* nonnull %6) #3
  call void @llvm.lifetime.end.p0i8(i64 4, i8* nonnull %5) #3
  call void @llvm.lifetime.end.p0i8(i64 1204, i8* nonnull %4) #3
  ret i32 0
}

; Function Attrs: argmemonly mustprogress nofree nosync nounwind willreturn
declare void @llvm.lifetime.start.p0i8(i64 immarg, i8* nocapture) #1

; Function Attrs: nofree nounwind
declare noundef i32 @__isoc99_scanf(i8* nocapture noundef readonly, ...) local_unnamed_addr #2

; Function Attrs: nofree nounwind
declare noundef i32 @printf(i8* nocapture noundef readonly, ...) local_unnamed_addr #2

; Function Attrs: argmemonly mustprogress nofree nosync nounwind willreturn
declare void @llvm.lifetime.end.p0i8(i64 immarg, i8* nocapture) #1


!llvm.module.flags = !{!0, !1, !2, !3}
!llvm.ident = !{!4}

!0 = !{i32 1, !"wchar_size", i32 4}
!1 = !{i32 7, !"PIC Level", i32 2}
!2 = !{i32 7, !"PIE Level", i32 2}
!3 = !{i32 7, !"uwtable", i32 1}
!4 = !{!"clang version 13.0.0"}
!5 = !{!6, !6, i64 0}
!6 = !{!"int", !7, i64 0}
!7 = !{!"omnipotent char", !8, i64 0}
!8 = !{!"Simple C/C++ TBAA"}
!9 = distinct !{!9, !10}
!10 = !{!"llvm.loop.mustprogress"}
!11 = distinct !{!11, !10}
